; Function Attrs: nounwind uwtable
define range(i32 0, 2) i32 @dt_is_tag_attached(i32 noundef %0, i32 noundef %1) local_unnamed_addr #0 {
  %3 = alloca ptr, align 8
  call void @llvm.lifetime.start.p0(i64 8, ptr nonnull %3) #11
  %4 = load i32, ptr getelementptr inbounds nuw (i8, ptr @darktable, i64 8), align 8, !tbaa !9
  %5 = and i32 %4, 256
  %.not = icmp eq i32 %5, 0
  br i1 %.not, label %7, label %6

6:                                                ; preds = %2
  tail call void (ptr, ...) @dt_print_ext(ptr noundef nonnull @.str, ptr noundef nonnull @.str.1, i32 noundef 1129, ptr noundef nonnull @__FUNCTION__.dt_is_tag_attached, ptr noundef nonnull @.str.33) #11
  br label %7

7:                                                ; preds = %6, %2
  %8 = load ptr, ptr getelementptr inbounds nuw (i8, ptr @darktable, i64 136), align 8, !tbaa !49
  %9 = tail call ptr @dt_database_get(ptr noundef %8) #11
  %10 = call i32 @sqlite3_prepare_v2(ptr noundef %9, ptr noundef nonnull @.str.33, i32 noundef -1, ptr noundef nonnull %3, ptr noundef null) #11
  %.not6 = icmp eq i32 %10, 0
  br i1 %.not6, label %17, label %11

11:                                               ; preds = %7
  %12 = load ptr, ptr @stderr, align 8, !tbaa !50
  %13 = load ptr, ptr getelementptr inbounds nuw (i8, ptr @darktable, i64 136), align 8, !tbaa !49
  %14 = call ptr @dt_database_get(ptr noundef %13) #11
  %15 = call ptr @sqlite3_errmsg(ptr noundef %14) #11
  %16 = call i32 (ptr, ptr, ...) @fprintf(ptr noundef %12, ptr noundef nonnull @.str.3, ptr noundef nonnull @.str.1, i32 noundef 1129, ptr noundef nonnull @__FUNCTION__.dt_is_tag_attached, ptr noundef nonnull @.str.33, ptr noundef %15) #12
  br label %17

17:                                               ; preds = %11, %7
  %18 = load ptr, ptr %3, align 8, !tbaa !52
  %19 = call i32 @sqlite3_bind_int(ptr noundef %18, i32 noundef 1, i32 noundef %1) #11
  %.not7 = icmp eq i32 %19, 0
  br i1 %.not7, label %26, label %20

20:                                               ; preds = %17
  %21 = load ptr, ptr @stderr, align 8, !tbaa !50
  %22 = load ptr, ptr getelementptr inbounds nuw (i8, ptr @darktable, i64 136), align 8, !tbaa !49
  %23 = call ptr @dt_database_get(ptr noundef %22) #11
  %24 = call ptr @sqlite3_errmsg(ptr noundef %23) #11
  %25 = call i32 (ptr, ptr, ...) @fprintf(ptr noundef %21, ptr noundef nonnull @.str.4, ptr noundef nonnull @.str.1, i32 noundef 1131, ptr noundef nonnull @__FUNCTION__.dt_is_tag_attached, ptr noundef %24) #12
  br label %26

26:                                               ; preds = %20, %17
  %27 = load ptr, ptr %3, align 8, !tbaa !52
  %28 = call i32 @sqlite3_bind_int(ptr noundef %27, i32 noundef 2, i32 noundef %0) #11
  %.not8 = icmp eq i32 %28, 0
  br i1 %.not8, label %35, label %29

29:                                               ; preds = %26
  %30 = load ptr, ptr @stderr, align 8, !tbaa !50
  %31 = load ptr, ptr getelementptr inbounds nuw (i8, ptr @darktable, i64 136), align 8, !tbaa !49
  %32 = call ptr @dt_database_get(ptr noundef %31) #11
  %33 = call ptr @sqlite3_errmsg(ptr noundef %32) #11
  %34 = call i32 (ptr, ptr, ...) @fprintf(ptr noundef %30, ptr noundef nonnull @.str.4, ptr noundef nonnull @.str.1, i32 noundef 1132, ptr noundef nonnull @__FUNCTION__.dt_is_tag_attached, ptr noundef %33) #12
  br label %35

35:                                               ; preds = %29, %26
  %36 = load ptr, ptr %3, align 8, !tbaa !52
  %37 = call i32 @sqlite3_step(ptr noundef %36) #11
  %38 = icmp eq i32 %37, 100
  %39 = zext i1 %38 to i32
  %40 = load ptr, ptr %3, align 8, !tbaa !52
  %41 = call i32 @sqlite3_finalize(ptr noundef %40) #11
  call void @llvm.lifetime.end.p0(i64 8, ptr nonnull %3) #11
  ret i32 %39
}